target datalayout = "e-m:e-p270:32:32-p271:32:32-p272:64:64-i64:64-i128:128-f80:128-n8:16:32:64-S128"
target triple = "x86_64-pc-linux-gnu"

%union.SourceSpan = type { i64 }
%union.anon.2 = type { ptr }
%union.anon.3 = type { i16 }
%union.anon.4 = type { %struct.FuncDecl }
%struct.FuncDecl = type { i32, [4 x i8], %struct.Signature_, i32, i32, %union.anon.11 }
%struct.Signature_ = type <{ %struct.CalleeAttributes, i16, i8, i32, i32, [4 x i8], ptr }>
%struct.CalleeAttributes = type { i8 }
%union.anon.11 = type { %struct.anon.12 }
%struct.anon.12 = type { i16, %union.anon.13 }
%union.anon.13 = type { ptr }
%struct.Decl_ = type { ptr, ptr, %union.SourceSpan, i64, %union.anon.2, i32, %union.anon.3, i64, ptr, ptr, ptr, %union.anon.4 }

@.str = private unnamed_addr constant [36 x i8] c"FATAL ERROR %s -> in %s @ in %s:%d \00", align 1
@.str.1 = private unnamed_addr constant [22 x i8] c"Should be unreachable\00", align 1
@.str.2 = private unnamed_addr constant [104 x i8] c"generated/home/dtcxzyw/WorkSpace/Projects/compilers/llvm-opt-benchmark/bench/c3c/c3c/src/compiler/ast.c\00", align 1
@.str.5 = private unnamed_addr constant [13 x i8] c"an attribute\00", align 1
@.str.6 = private unnamed_addr constant [12 x i8] c"a bitstruct\00", align 1
@.str.7 = private unnamed_addr constant [17 x i8] c"a body parameter\00", align 1
@.str.8 = private unnamed_addr constant [22 x i8] c"a compile time assert\00", align 1
@.str.9 = private unnamed_addr constant [20 x i8] c"a compile time echo\00", align 1
@.str.10 = private unnamed_addr constant [26 x i8] c"compile time exec include\00", align 1
@.str.11 = private unnamed_addr constant [11 x i8] c"an include\00", align 1
@.str.12 = private unnamed_addr constant [12 x i8] c"a declarray\00", align 1
@.str.13 = private unnamed_addr constant [9 x i8] c"a define\00", align 1
@.str.14 = private unnamed_addr constant [16 x i8] c"a distinct type\00", align 1
@.str.15 = private unnamed_addr constant [8 x i8] c"an enum\00", align 1
@.str.16 = private unnamed_addr constant [14 x i8] c"an enum value\00", align 1
@.str.17 = private unnamed_addr constant [22 x i8] c"an erased declaration\00", align 1
@.str.18 = private unnamed_addr constant [8 x i8] c"a fault\00", align 1
@.str.19 = private unnamed_addr constant [14 x i8] c"a fault value\00", align 1
@.str.20 = private unnamed_addr constant [16 x i8] c"a function type\00", align 1
@.str.21 = private unnamed_addr constant [11 x i8] c"a function\00", align 1
@.str.22 = private unnamed_addr constant [8 x i8] c"globals\00", align 1
@.str.23 = private unnamed_addr constant [10 x i8] c"an import\00", align 1
@.str.24 = private unnamed_addr constant [8 x i8] c"a label\00", align 1
@.str.25 = private unnamed_addr constant [8 x i8] c"a macro\00", align 1
@.str.26 = private unnamed_addr constant [16 x i8] c"a poisoned decl\00", align 1
@.str.27 = private unnamed_addr constant [13 x i8] c"an interface\00", align 1
@.str.28 = private unnamed_addr constant [9 x i8] c"a struct\00", align 1
@.str.29 = private unnamed_addr constant [8 x i8] c"a union\00", align 1
@.str.30 = private unnamed_addr constant [19 x i8] c"a bitstruct member\00", align 1
@.str.31 = private unnamed_addr constant [11 x i8] c"a constant\00", align 1
@__func__.decl_to_a_name = private unnamed_addr constant [15 x i8] c"decl_to_a_name\00", align 1
@.str.32 = private unnamed_addr constant [18 x i8] c"a global variable\00", align 1
@.str.33 = private unnamed_addr constant [11 x i8] c"a variable\00", align 1
@.str.34 = private unnamed_addr constant [24 x i8] c"a compile time variable\00", align 1
@.str.35 = private unnamed_addr constant [29 x i8] c"a compile time type variable\00", align 1
@.str.36 = private unnamed_addr constant [9 x i8] c"a member\00", align 1
@.str.37 = private unnamed_addr constant [12 x i8] c"a parameter\00", align 1
@.str.38 = private unnamed_addr constant [25 x i8] c"a compile time parameter\00", align 1
@.str.39 = private unnamed_addr constant [30 x i8] c"a compile time type parameter\00", align 1
@.str.40 = private unnamed_addr constant [23 x i8] c"a expression parameter\00", align 1
@.str.41 = private unnamed_addr constant [16 x i8] c"a ref parameter\00", align 1
@.str.42 = private unnamed_addr constant [22 x i8] c"an unwrapped variable\00", align 1

; Function Attrs: nounwind uwtable
define dso_local ptr @decl_to_a_name(ptr noundef %0) #0 {
  %2 = alloca ptr, align 8
  %3 = alloca ptr, align 8
  store ptr %0, ptr %3, align 8
  %4 = load ptr, ptr %3, align 8
  %5 = getelementptr inbounds %struct.Decl_, ptr %4, i32 0, i32 3
  %6 = load i64, ptr %5, align 8
  %7 = and i64 %6, 127
  %8 = trunc i64 %7 to i32
  switch i32 %8, label %61 [
    i32 1, label %9
    i32 2, label %10
    i32 3, label %11
    i32 4, label %12
    i32 5, label %13
    i32 6, label %14
    i32 7, label %15
    i32 8, label %16
    i32 9, label %17
    i32 24, label %17
    i32 10, label %18
    i32 11, label %19
    i32 12, label %20
    i32 13, label %21
    i32 14, label %22
    i32 15, label %23
    i32 16, label %24
    i32 17, label %25
    i32 18, label %26
    i32 19, label %27
    i32 20, label %28
    i32 21, label %29
    i32 0, label %30
    i32 22, label %31
    i32 23, label %32
    i32 25, label %33
    i32 26, label %34
  ]

9:                                                ; preds = %1
  store ptr @.str.5, ptr %2, align 8
  br label %63

10:                                               ; preds = %1
  store ptr @.str.6, ptr %2, align 8
  br label %63

11:                                               ; preds = %1
  store ptr @.str.7, ptr %2, align 8
  br label %63

12:                                               ; preds = %1
  store ptr @.str.8, ptr %2, align 8
  br label %63

13:                                               ; preds = %1
  store ptr @.str.9, ptr %2, align 8
  br label %63

14:                                               ; preds = %1
  store ptr @.str.10, ptr %2, align 8
  br label %63

15:                                               ; preds = %1
  store ptr @.str.11, ptr %2, align 8
  br label %63

16:                                               ; preds = %1
  store ptr @.str.12, ptr %2, align 8
  br label %63

17:                                               ; preds = %1, %1
  store ptr @.str.13, ptr %2, align 8
  br label %63

18:                                               ; preds = %1
  store ptr @.str.14, ptr %2, align 8
  br label %63

19:                                               ; preds = %1
  store ptr @.str.15, ptr %2, align 8
  br label %63

20:                                               ; preds = %1
  store ptr @.str.16, ptr %2, align 8
  br label %63

21:                                               ; preds = %1
  store ptr @.str.17, ptr %2, align 8
  br label %63

22:                                               ; preds = %1
  store ptr @.str.18, ptr %2, align 8
  br label %63

23:                                               ; preds = %1
  store ptr @.str.19, ptr %2, align 8
  br label %63

24:                                               ; preds = %1
  store ptr @.str.20, ptr %2, align 8
  br label %63

25:                                               ; preds = %1
  store ptr @.str.21, ptr %2, align 8
  br label %63

26:                                               ; preds = %1
  store ptr @.str.22, ptr %2, align 8
  br label %63

27:                                               ; preds = %1
  store ptr @.str.23, ptr %2, align 8
  br label %63

28:                                               ; preds = %1
  store ptr @.str.24, ptr %2, align 8
  br label %63

29:                                               ; preds = %1
  store ptr @.str.25, ptr %2, align 8
  br label %63

30:                                               ; preds = %1
  store ptr @.str.26, ptr %2, align 8
  br label %63

31:                                               ; preds = %1
  store ptr @.str.27, ptr %2, align 8
  br label %63

32:                                               ; preds = %1
  store ptr @.str.28, ptr %2, align 8
  br label %63

33:                                               ; preds = %1
  store ptr @.str.29, ptr %2, align 8
  br label %63

34:                                               ; preds = %1
  %35 = load ptr, ptr %3, align 8
  %36 = getelementptr inbounds %struct.Decl_, ptr %35, i32 0, i32 11
  %37 = load i32, ptr %36, align 8
  %38 = and i32 %37, 255
  switch i32 %38, label %58 [
    i32 5, label %39
    i32 0, label %40
    i32 9, label %41
    i32 1, label %44
    i32 2, label %45
    i32 13, label %46
    i32 14, label %47
    i32 4, label %48
    i32 3, label %49
    i32 11, label %50
    i32 12, label %51
    i32 7, label %52
    i32 6, label %53
    i32 10, label %54
    i32 8, label %57
  ]

39:                                               ; preds = %34
  store ptr @.str.30, ptr %2, align 8
  br label %63

40:                                               ; preds = %34
  store ptr @.str.31, ptr %2, align 8
  br label %63

41:                                               ; preds = %34
  br label %42

42:                                               ; preds = %41
  call void (ptr, ...) @error_exit(ptr noundef @.str, ptr noundef @.str.1, ptr noundef @__func__.decl_to_a_name, ptr noundef @.str.2, i32 noundef 140) #4
  unreachable

43:                                               ; No predecessors!
  br label %44

44:                                               ; preds = %43, %34
  store ptr @.str.32, ptr %2, align 8
  br label %63

45:                                               ; preds = %34
  store ptr @.str.33, ptr %2, align 8
  br label %63

46:                                               ; preds = %34
  store ptr @.str.34, ptr %2, align 8
  br label %63

47:                                               ; preds = %34
  store ptr @.str.35, ptr %2, align 8
  br label %63

48:                                               ; preds = %34
  store ptr @.str.36, ptr %2, align 8
  br label %63

49:                                               ; preds = %34
  store ptr @.str.37, ptr %2, align 8
  br label %63

50:                                               ; preds = %34
  store ptr @.str.38, ptr %2, align 8
  br label %63

51:                                               ; preds = %34
  store ptr @.str.39, ptr %2, align 8
  br label %63

52:                                               ; preds = %34
  store ptr @.str.40, ptr %2, align 8
  br label %63

53:                                               ; preds = %34
  store ptr @.str.41, ptr %2, align 8
  br label %63

54:                                               ; preds = %34
  br label %55

55:                                               ; preds = %54
  call void (ptr, ...) @error_exit(ptr noundef @.str, ptr noundef @.str.1, ptr noundef @__func__.decl_to_a_name, ptr noundef @.str.2, i32 noundef 151) #4
  unreachable

56:                                               ; No predecessors!
  br label %57

57:                                               ; preds = %56, %34
  store ptr @.str.42, ptr %2, align 8
  br label %63

58:                                               ; preds = %34
  br label %59

59:                                               ; preds = %58
  call void (ptr, ...) @error_exit(ptr noundef @.str, ptr noundef @.str.1, ptr noundef @__func__.decl_to_a_name, ptr noundef @.str.2, i32 noundef 154) #4
  unreachable

60:                                               ; No predecessors!
  br label %61

61:                                               ; preds = %60, %1
  br label %62

62:                                               ; preds = %61
  call void (ptr, ...) @error_exit(ptr noundef @.str, ptr noundef @.str.1, ptr noundef @__func__.decl_to_a_name, ptr noundef @.str.2, i32 noundef 156) #4
  unreachable

63:                                               ; preds = %57, %53, %52, %51, %50, %49, %48, %47, %46, %45, %44, %40, %39, %33, %32, %31, %30, %29, %28, %27, %26, %25, %24, %23, %22, %21, %20, %19, %18, %17, %16, %15, %14, %13, %12, %11, %10, %9
  %64 = load ptr, ptr %2, align 8
  ret ptr %64
}