; Function Attrs: nounwind uwtable
define dso_local noundef nonnull ptr @decl_to_a_name(ptr nocapture noundef readonly %0) local_unnamed_addr #0 {
  %2 = getelementptr inbounds i8, ptr %0, i64 24
  %3 = load i64, ptr %2, align 8
  %4 = trunc i64 %3 to i32
  %5 = and i32 %4, 127
  switch i32 %5, label %48 [
    i32 1, label %49
    i32 2, label %6
    i32 3, label %7
    i32 4, label %8
    i32 5, label %9
    i32 6, label %10
    i32 7, label %11
    i32 8, label %12
    i32 9, label %13
    i32 24, label %13
    i32 10, label %14
    i32 11, label %15
    i32 12, label %16
    i32 13, label %17
    i32 14, label %18
    i32 15, label %19
    i32 16, label %20
    i32 17, label %21
    i32 18, label %22
    i32 19, label %23
    i32 20, label %24
    i32 21, label %25
    i32 0, label %26
    i32 22, label %27
    i32 23, label %28
    i32 25, label %29
    i32 26, label %30
  ]

6:                                                ; preds = %1
  br label %49

7:                                                ; preds = %1
  br label %49

8:                                                ; preds = %1
  br label %49

9:                                                ; preds = %1
  br label %49

10:                                               ; preds = %1
  br label %49

11:                                               ; preds = %1
  br label %49

12:                                               ; preds = %1
  br label %49

13:                                               ; preds = %1, %1
  br label %49

14:                                               ; preds = %1
  br label %49

15:                                               ; preds = %1
  br label %49

16:                                               ; preds = %1
  br label %49

17:                                               ; preds = %1
  br label %49

18:                                               ; preds = %1
  br label %49

19:                                               ; preds = %1
  br label %49

20:                                               ; preds = %1
  br label %49

21:                                               ; preds = %1
  br label %49

22:                                               ; preds = %1
  br label %49

23:                                               ; preds = %1
  br label %49

24:                                               ; preds = %1
  br label %49

25:                                               ; preds = %1
  br label %49

26:                                               ; preds = %1
  br label %49

27:                                               ; preds = %1
  br label %49

28:                                               ; preds = %1
  br label %49

29:                                               ; preds = %1
  br label %49

30:                                               ; preds = %1
  %31 = getelementptr inbounds i8, ptr %0, i64 80
  %32 = load i32, ptr %31, align 8
  %trunc = trunc i32 %32 to i8
  switch i8 %trunc, label %47 [
    i8 5, label %49
    i8 0, label %33
    i8 9, label %34
    i8 1, label %35
    i8 2, label %36
    i8 13, label %37
    i8 14, label %38
    i8 4, label %39
    i8 3, label %40
    i8 11, label %41
    i8 12, label %42
    i8 7, label %43
    i8 6, label %44
    i8 10, label %45
    i8 8, label %46
  ]

33:                                               ; preds = %30
  br label %49

34:                                               ; preds = %30
  tail call void (ptr, ...) @error_exit(ptr noundef nonnull @.str, ptr noundef nonnull @.str.1, ptr noundef nonnull @__func__.decl_to_a_name, ptr noundef nonnull @.str.2, i32 noundef 140) #10
  unreachable

35:                                               ; preds = %30
  br label %49

36:                                               ; preds = %30
  br label %49

37:                                               ; preds = %30
  br label %49

38:                                               ; preds = %30
  br label %49

39:                                               ; preds = %30
  br label %49

40:                                               ; preds = %30
  br label %49

41:                                               ; preds = %30
  br label %49

42:                                               ; preds = %30
  br label %49

43:                                               ; preds = %30
  br label %49

44:                                               ; preds = %30
  br label %49

45:                                               ; preds = %30
  tail call void (ptr, ...) @error_exit(ptr noundef nonnull @.str, ptr noundef nonnull @.str.1, ptr noundef nonnull @__func__.decl_to_a_name, ptr noundef nonnull @.str.2, i32 noundef 151) #10
  unreachable

46:                                               ; preds = %30
  br label %49

47:                                               ; preds = %30
  tail call void (ptr, ...) @error_exit(ptr noundef nonnull @.str, ptr noundef nonnull @.str.1, ptr noundef nonnull @__func__.decl_to_a_name, ptr noundef nonnull @.str.2, i32 noundef 154) #10
  unreachable

48:                                               ; preds = %1
  tail call void (ptr, ...) @error_exit(ptr noundef nonnull @.str, ptr noundef nonnull @.str.1, ptr noundef nonnull @__func__.decl_to_a_name, ptr noundef nonnull @.str.2, i32 noundef 156) #10
  unreachable

49:                                               ; preds = %30, %1, %46, %44, %43, %42, %41, %40, %39, %38, %37, %36, %35, %33, %29, %28, %27, %26, %25, %24, %23, %22, %21, %20, %19, %18, %17, %16, %15, %14, %13, %12, %11, %10, %9, %8, %7, %6
  %.0 = phi ptr [ @.str.42, %46 ], [ @.str.41, %44 ], [ @.str.40, %43 ], [ @.str.39, %42 ], [ @.str.38, %41 ], [ @.str.37, %40 ], [ @.str.36, %39 ], [ @.str.35, %38 ], [ @.str.34, %37 ], [ @.str.33, %36 ], [ @.str.32, %35 ], [ @.str.31, %33 ], [ @.str.29, %29 ], [ @.str.28, %28 ], [ @.str.27, %27 ], [ @.str.26, %26 ], [ @.str.25, %25 ], [ @.str.24, %24 ], [ @.str.23, %23 ], [ @.str.22, %22 ], [ @.str.21, %21 ], [ @.str.20, %20 ], [ @.str.19, %19 ], [ @.str.18, %18 ], [ @.str.17, %17 ], [ @.str.16, %16 ], [ @.str.15, %15 ], [ @.str.14, %14 ], [ @.str.13, %13 ], [ @.str.12, %12 ], [ @.str.11, %11 ], [ @.str.10, %10 ], [ @.str.9, %9 ], [ @.str.8, %8 ], [ @.str.7, %7 ], [ @.str.6, %6 ], [ @.str.5, %1 ], [ @.str.30, %30 ]
  ret ptr %.0
}